target datalayout = "e-m:e-p270:32:32-p271:32:32-p272:64:64-i64:64-i128:128-f80:128-n8:16:32:64-S128"
target triple = "x86_64-pc-linux-gnu"

@.str.4 = private unnamed_addr constant [1 x i8] zeroinitializer, align 1
@.str.5 = private unnamed_addr constant [6 x i8] c"%s%ld\00", align 1
@.str.6 = private unnamed_addr constant [10 x i8] c"%s%ld-%ld\00", align 1
@.str.7 = private unnamed_addr constant [2 x i8] c",\00", align 1
@.str.8 = private unnamed_addr constant [54 x i8] c"failed to write to string -- this should never happen\00", align 1

; Function Attrs: nounwind uwtable
define dso_local ptr @bit_fmt(ptr noundef %0, i32 noundef %1, ptr noundef %2) #0 {
  %4 = alloca ptr, align 8
  %5 = alloca i32, align 4
  %6 = alloca ptr, align 8
  %7 = alloca i32, align 4
  %8 = alloca ptr, align 8
  %9 = alloca i64, align 8
  %10 = alloca i32, align 4
  %11 = alloca i32, align 4
  %12 = alloca i64, align 8
  store ptr %0, ptr %4, align 8
  store i32 %1, ptr %5, align 4
  store ptr %2, ptr %6, align 8
  call void @llvm.lifetime.start.p0(i64 4, ptr %7) #12
  call void @llvm.lifetime.start.p0(i64 8, ptr %8) #12
  store ptr @.str.4, ptr %8, align 8
  call void @llvm.lifetime.start.p0(i64 8, ptr %9) #12
  br label %13

13:                                               ; preds = %3
  br label %14

14:                                               ; preds = %13
  br label %15

15:                                               ; preds = %14
  %16 = load ptr, ptr %4, align 8
  store i8 0, ptr %16, align 1
  store i64 0, ptr %9, align 8
  br label %17

17:                                               ; preds = %119, %34, %15
  %18 = load i64, ptr %9, align 8
  %19 = load ptr, ptr %6, align 8
  %20 = getelementptr inbounds i64, ptr %19, i64 1
  %21 = load i64, ptr %20, align 8
  %22 = icmp slt i64 %18, %21
  br i1 %22, label %23, label %122

23:                                               ; preds = %17
  %24 = load i64, ptr %9, align 8
  %25 = ashr i64 %24, 6
  %26 = add nsw i64 %25, 2
  %27 = trunc i64 %26 to i32
  store i32 %27, ptr %7, align 4
  %28 = load ptr, ptr %6, align 8
  %29 = load i32, ptr %7, align 4
  %30 = sext i32 %29 to i64
  %31 = getelementptr inbounds i64, ptr %28, i64 %30
  %32 = load i64, ptr %31, align 8
  %33 = icmp eq i64 %32, 0
  br i1 %33, label %34, label %37

34:                                               ; preds = %23
  %35 = load i64, ptr %9, align 8
  %36 = add i64 %35, 64
  store i64 %36, ptr %9, align 8
  br label %17, !llvm.loop !24

37:                                               ; preds = %23
  %38 = load ptr, ptr %6, align 8
  %39 = load i64, ptr %9, align 8
  %40 = ashr i64 %39, 6
  %41 = add nsw i64 %40, 2
  %42 = getelementptr inbounds i64, ptr %38, i64 %41
  %43 = load i64, ptr %42, align 8
  %44 = load i64, ptr %9, align 8
  %45 = and i64 %44, 63
  %46 = shl i64 1, %45
  %47 = and i64 %43, %46
  %48 = icmp ne i64 %47, 0
  br i1 %48, label %49, label %50

49:                                               ; preds = %37
  br i1 true, label %51, label %119

50:                                               ; preds = %37
  br i1 false, label %51, label %119

51:                                               ; preds = %50, %49
  call void @llvm.lifetime.start.p0(i64 4, ptr %10) #12
  call void @llvm.lifetime.start.p0(i64 4, ptr %11) #12
  call void @llvm.lifetime.start.p0(i64 8, ptr %12) #12
  %52 = load i64, ptr %9, align 8
  store i64 %52, ptr %12, align 8
  br label %53

53:                                               ; preds = %78, %51
  %54 = load i64, ptr %9, align 8
  %55 = add nsw i64 %54, 1
  %56 = load ptr, ptr %6, align 8
  %57 = getelementptr inbounds i64, ptr %56, i64 1
  %58 = load i64, ptr %57, align 8
  %59 = icmp slt i64 %55, %58
  br i1 %59, label %60, label %76

60:                                               ; preds = %53
  %61 = load ptr, ptr %6, align 8
  %62 = load i64, ptr %9, align 8
  %63 = add nsw i64 %62, 1
  %64 = ashr i64 %63, 6
  %65 = add nsw i64 %64, 2
  %66 = getelementptr inbounds i64, ptr %61, i64 %65
  %67 = load i64, ptr %66, align 8
  %68 = load i64, ptr %9, align 8
  %69 = add nsw i64 %68, 1
  %70 = and i64 %69, 63
  %71 = shl i64 1, %70
  %72 = and i64 %67, %71
  %73 = icmp ne i64 %72, 0
  %74 = select i1 %73, i32 1, i32 0
  %75 = icmp ne i32 %74, 0
  br label %76

76:                                               ; preds = %60, %53
  %77 = phi i1 [ false, %53 ], [ %75, %60 ]
  br i1 %77, label %78, label %81

78:                                               ; preds = %76
  %79 = load i64, ptr %9, align 8
  %80 = add nsw i64 %79, 1
  store i64 %80, ptr %9, align 8
  br label %53, !llvm.loop !25

81:                                               ; preds = %76
  %82 = load ptr, ptr %4, align 8
  %83 = call i64 @strlen(ptr noundef %82) #13
  %84 = trunc i64 %83 to i32
  store i32 %84, ptr %11, align 4
  %85 = load i64, ptr %9, align 8
  %86 = load i64, ptr %12, align 8
  %87 = icmp eq i64 %85, %86
  br i1 %87, label %88, label %100

88:                                               ; preds = %81
  %89 = load ptr, ptr %4, align 8
  %90 = load i32, ptr %11, align 4
  %91 = sext i32 %90 to i64
  %92 = getelementptr inbounds i8, ptr %89, i64 %91
  %93 = load i32, ptr %5, align 4
  %94 = load i32, ptr %11, align 4
  %95 = sub nsw i32 %93, %94
  %96 = sext i32 %95 to i64
  %97 = load ptr, ptr %8, align 8
  %98 = load i64, ptr %12, align 8
  %99 = call i32 (ptr, i64, ptr, ...) @snprintf(ptr noundef %92, i64 noundef %96, ptr noundef @.str.5, ptr noundef %97, i64 noundef %98) #12
  store i32 %99, ptr %10, align 4
  br label %113

100:                                              ; preds = %81
  %101 = load ptr, ptr %4, align 8
  %102 = load i32, ptr %11, align 4
  %103 = sext i32 %102 to i64
  %104 = getelementptr inbounds i8, ptr %101, i64 %103
  %105 = load i32, ptr %5, align 4
  %106 = load i32, ptr %11, align 4
  %107 = sub nsw i32 %105, %106
  %108 = sext i32 %107 to i64
  %109 = load ptr, ptr %8, align 8
  %110 = load i64, ptr %12, align 8
  %111 = load i64, ptr %9, align 8
  %112 = call i32 (ptr, i64, ptr, ...) @snprintf(ptr noundef %104, i64 noundef %108, ptr noundef @.str.6, ptr noundef %109, i64 noundef %110, i64 noundef %111) #12
  store i32 %112, ptr %10, align 4
  br label %113

113:                                              ; preds = %100, %88
  store ptr @.str.7, ptr %8, align 8
  %114 = load i32, ptr %10, align 4
  %115 = icmp eq i32 %114, -1
  br i1 %115, label %116, label %118

116:                                              ; preds = %113
  %117 = call i32 (ptr, ...) @error(ptr noundef @.str.8)
  br label %118

118:                                              ; preds = %116, %113
  call void @llvm.lifetime.end.p0(i64 8, ptr %12) #12
  call void @llvm.lifetime.end.p0(i64 4, ptr %11) #12
  call void @llvm.lifetime.end.p0(i64 4, ptr %10) #12
  br label %119

119:                                              ; preds = %118, %50, %49
  %120 = load i64, ptr %9, align 8
  %121 = add nsw i64 %120, 1
  store i64 %121, ptr %9, align 8
  br label %17, !llvm.loop !24

122:                                              ; preds = %17
  %123 = load ptr, ptr %4, align 8
  call void @llvm.lifetime.end.p0(i64 8, ptr %9) #12
  call void @llvm.lifetime.end.p0(i64 8, ptr %8) #12
  call void @llvm.lifetime.end.p0(i64 4, ptr %7) #12
  ret ptr %123
}