; Function Attrs: nounwind uwtable
define dso_local noundef ptr @bit_fmt(ptr noundef returned captures(ret: address, provenance) initializes((0, 1)) %0, i32 noundef %1, ptr noundef readonly captures(none) %2) #0 {
  store i8 0, ptr %0, align 1
  %4 = getelementptr inbounds nuw i8, ptr %2, i64 8
  %5 = load i64, ptr %4, align 8
  %6 = icmp sgt i64 %5, 0
  br i1 %6, label %.lr.ph.lr.ph, label %.outer._crit_edge

.lr.ph.lr.ph:                                     ; preds = %3
  %invariant.gep = getelementptr i8, ptr %2, i64 16
  br label %.lr.ph

.lr.ph:                                           ; preds = %.lr.ph.lr.ph, %.outer
  %7 = phi i64 [ %5, %.lr.ph.lr.ph ], [ %47, %.outer ]
  %.0.ph47 = phi ptr [ @.str.4, %.lr.ph.lr.ph ], [ %.1, %.outer ]
  %.035.ph46 = phi i64 [ 0, %.lr.ph.lr.ph ], [ %.pre-phi, %.outer ]
  br label %8

8:                                                ; preds = %.lr.ph, %15
  %.03545 = phi i64 [ %.035.ph46, %.lr.ph ], [ %16, %15 ]
  %9 = ashr i64 %.03545, 6
  %10 = add nsw i64 %9, 2
  %sext = shl i64 %10, 32
  %11 = ashr exact i64 %sext, 29
  %12 = getelementptr inbounds i8, ptr %2, i64 %11
  %13 = load i64, ptr %12, align 8
  %14 = icmp eq i64 %13, 0
  br i1 %14, label %15, label %18

15:                                               ; preds = %8
  %16 = add i64 %.03545, 64
  %17 = icmp slt i64 %16, %7
  br i1 %17, label %8, label %.outer._crit_edge, !llvm.loop !25

18:                                               ; preds = %8
  %19 = getelementptr inbounds i64, ptr %2, i64 %10
  %20 = load i64, ptr %19, align 8
  %21 = and i64 %.03545, 63
  %22 = shl nuw i64 1, %21
  %23 = and i64 %20, %22
  %.not = icmp eq i64 %23, 0
  br i1 %.not, label %..outer_crit_edge, label %.preheader

..outer_crit_edge:                                ; preds = %18
  %.pre = add nsw i64 %.03545, 1
  br label %.outer

.preheader:                                       ; preds = %18, %26
  %.2 = phi i64 [ %24, %26 ], [ %.03545, %18 ]
  %24 = add nsw i64 %.2, 1
  %25 = icmp slt i64 %24, %7
  br i1 %25, label %26, label %.critedge

26:                                               ; preds = %.preheader
  %27 = ashr i64 %24, 6
  %gep = getelementptr i64, ptr %invariant.gep, i64 %27
  %28 = load i64, ptr %gep, align 8
  %29 = and i64 %24, 63
  %30 = shl nuw i64 1, %29
  %31 = and i64 %28, %30
  %.not39 = icmp eq i64 %31, 0
  br i1 %.not39, label %.critedge, label %.preheader, !llvm.loop !26

.critedge:                                        ; preds = %.preheader, %26
  %32 = tail call i64 @strlen(ptr noundef nonnull dereferenceable(1) %0) #20
  %33 = trunc i64 %32 to i32
  %34 = icmp eq i64 %.2, %.03545
  %sext41 = shl i64 %32, 32
  %35 = ashr exact i64 %sext41, 32
  %36 = getelementptr inbounds i8, ptr %0, i64 %35
  %37 = sub nsw i32 %1, %33
  %38 = sext i32 %37 to i64
  br i1 %34, label %39, label %41

39:                                               ; preds = %.critedge
  %40 = tail call i32 (ptr, i64, ptr, ...) @snprintf(ptr noundef nonnull %36, i64 noundef %38, ptr noundef nonnull @.str.5, ptr noundef %.0.ph47, i64 noundef %.03545) #17
  br label %43

41:                                               ; preds = %.critedge
  %42 = tail call i32 (ptr, i64, ptr, ...) @snprintf(ptr noundef nonnull %36, i64 noundef %38, ptr noundef nonnull @.str.6, ptr noundef %.0.ph47, i64 noundef %.03545, i64 noundef %.2) #17
  br label %43

43:                                               ; preds = %41, %39
  %.037 = phi i32 [ %40, %39 ], [ %42, %41 ]
  %44 = icmp eq i32 %.037, -1
  br i1 %44, label %45, label %.outer

45:                                               ; preds = %43
  %46 = tail call i32 (ptr, ...) @error(ptr noundef nonnull @.str.8) #17
  br label %.outer

.outer:                                           ; preds = %..outer_crit_edge, %43, %45
  %.pre-phi = phi i64 [ %.pre, %..outer_crit_edge ], [ %24, %43 ], [ %24, %45 ]
  %.1 = phi ptr [ %.0.ph47, %..outer_crit_edge ], [ @.str.7, %43 ], [ @.str.7, %45 ]
  %47 = load i64, ptr %4, align 8
  %48 = icmp slt i64 %.pre-phi, %47
  br i1 %48, label %.lr.ph, label %.outer._crit_edge, !llvm.loop !25

.outer._crit_edge:                                ; preds = %.outer, %15, %3
  ret ptr %0
}